target datalayout = "e-m:e-p270:32:32-p271:32:32-p272:64:64-i64:64-i128:128-f80:128-n8:16:32:64-S128"
target triple = "x86_64-pc-linux-gnu"

%"class.gmx::HardwareTopology" = type <{ i32, [4 x i8], %"struct.gmx::HardwareTopology::Machine", i8, [3 x i8], float, i32, [4 x i8] }>
%"struct.gmx::HardwareTopology::Machine" = type { %"class.std::vector", %"class.std::map", %"class.std::vector.3", %"class.std::vector.8", %"struct.gmx::HardwareTopology::Numa", %"class.std::vector.23" }
%"class.std::vector" = type { %"struct.std::_Vector_base" }
%"struct.std::_Vector_base" = type { %"struct.std::_Vector_base<gmx::HardwareTopology::LogicalProcessor, std::allocator<gmx::HardwareTopology::LogicalProcessor>>::_Vector_impl" }
%"struct.std::_Vector_base<gmx::HardwareTopology::LogicalProcessor, std::allocator<gmx::HardwareTopology::LogicalProcessor>>::_Vector_impl" = type { %"struct.std::_Vector_base<gmx::HardwareTopology::LogicalProcessor, std::allocator<gmx::HardwareTopology::LogicalProcessor>>::_Vector_impl_data" }
%"struct.std::_Vector_base<gmx::HardwareTopology::LogicalProcessor, std::allocator<gmx::HardwareTopology::LogicalProcessor>>::_Vector_impl_data" = type { ptr, ptr, ptr }
%"class.std::map" = type { %"class.std::_Rb_tree" }
%"class.std::_Rb_tree" = type { %"struct.std::_Rb_tree<int, std::pair<const int, int>, std::_Select1st<std::pair<const int, int>>, std::less<int>>::_Rb_tree_impl" }
%"struct.std::_Rb_tree<int, std::pair<const int, int>, std::_Select1st<std::pair<const int, int>>, std::less<int>>::_Rb_tree_impl" = type { [8 x i8], %"struct.std::_Rb_tree_header" }
%"struct.std::_Rb_tree_header" = type { %"struct.std::_Rb_tree_node_base", i64 }
%"struct.std::_Rb_tree_node_base" = type { i32, ptr, ptr, ptr }
%"class.std::vector.3" = type { %"struct.std::_Vector_base.4" }
%"struct.std::_Vector_base.4" = type { %"struct.std::_Vector_base<gmx::HardwareTopology::Package, std::allocator<gmx::HardwareTopology::Package>>::_Vector_impl" }
%"struct.std::_Vector_base<gmx::HardwareTopology::Package, std::allocator<gmx::HardwareTopology::Package>>::_Vector_impl" = type { %"struct.std::_Vector_base<gmx::HardwareTopology::Package, std::allocator<gmx::HardwareTopology::Package>>::_Vector_impl_data" }
%"struct.std::_Vector_base<gmx::HardwareTopology::Package, std::allocator<gmx::HardwareTopology::Package>>::_Vector_impl_data" = type { ptr, ptr, ptr }
%"class.std::vector.8" = type { %"struct.std::_Vector_base.9" }
%"struct.std::_Vector_base.9" = type { %"struct.std::_Vector_base<gmx::HardwareTopology::Cache, std::allocator<gmx::HardwareTopology::Cache>>::_Vector_impl" }
%"struct.std::_Vector_base<gmx::HardwareTopology::Cache, std::allocator<gmx::HardwareTopology::Cache>>::_Vector_impl" = type { %"struct.std::_Vector_base<gmx::HardwareTopology::Cache, std::allocator<gmx::HardwareTopology::Cache>>::_Vector_impl_data" }
%"struct.std::_Vector_base<gmx::HardwareTopology::Cache, std::allocator<gmx::HardwareTopology::Cache>>::_Vector_impl_data" = type { ptr, ptr, ptr }
%"struct.gmx::HardwareTopology::Numa" = type <{ %"class.std::vector.13", float, [4 x i8], %"class.std::vector.18", float, [4 x i8] }>
%"class.std::vector.13" = type { %"struct.std::_Vector_base.14" }
%"struct.std::_Vector_base.14" = type { %"struct.std::_Vector_base<gmx::HardwareTopology::NumaNode, std::allocator<gmx::HardwareTopology::NumaNode>>::_Vector_impl" }
%"struct.std::_Vector_base<gmx::HardwareTopology::NumaNode, std::allocator<gmx::HardwareTopology::NumaNode>>::_Vector_impl" = type { %"struct.std::_Vector_base<gmx::HardwareTopology::NumaNode, std::allocator<gmx::HardwareTopology::NumaNode>>::_Vector_impl_data" }
%"struct.std::_Vector_base<gmx::HardwareTopology::NumaNode, std::allocator<gmx::HardwareTopology::NumaNode>>::_Vector_impl_data" = type { ptr, ptr, ptr }
%"class.std::vector.18" = type { %"struct.std::_Vector_base.19" }
%"struct.std::_Vector_base.19" = type { %"struct.std::_Vector_base<std::vector<float>, std::allocator<std::vector<float>>>::_Vector_impl" }
%"struct.std::_Vector_base<std::vector<float>, std::allocator<std::vector<float>>>::_Vector_impl" = type { %"struct.std::_Vector_base<std::vector<float>, std::allocator<std::vector<float>>>::_Vector_impl_data" }
%"struct.std::_Vector_base<std::vector<float>, std::allocator<std::vector<float>>>::_Vector_impl_data" = type { ptr, ptr, ptr }
%"class.std::vector.23" = type { %"struct.std::_Vector_base.24" }
%"struct.std::_Vector_base.24" = type { %"struct.std::_Vector_base<gmx::HardwareTopology::Device, std::allocator<gmx::HardwareTopology::Device>>::_Vector_impl" }
%"struct.std::_Vector_base<gmx::HardwareTopology::Device, std::allocator<gmx::HardwareTopology::Device>>::_Vector_impl" = type { %"struct.std::_Vector_base<gmx::HardwareTopology::Device, std::allocator<gmx::HardwareTopology::Device>>::_Vector_impl_data" }
%"struct.std::_Vector_base<gmx::HardwareTopology::Device, std::allocator<gmx::HardwareTopology::Device>>::_Vector_impl_data" = type { ptr, ptr, ptr }

@_ZN3gmx16HardwareTopology7MachineC1Ev = unnamed_addr alias void (ptr), ptr @_ZN3gmx16HardwareTopology7MachineC2Ev

; Function Attrs: mustprogress uwtable
define void @_ZN3gmx16HardwareTopologyC2Ev(ptr noundef nonnull align 8 dereferenceable(228) %0) unnamed_addr #0 align 2 {
  %2 = alloca ptr, align 8
  store ptr %0, ptr %2, align 8, !tbaa !92
  %3 = load ptr, ptr %2, align 8
  %4 = getelementptr inbounds nuw %"class.gmx::HardwareTopology", ptr %3, i32 0, i32 0
  store i32 0, ptr %4, align 8, !tbaa !4
  %5 = getelementptr inbounds nuw %"class.gmx::HardwareTopology", ptr %3, i32 0, i32 2
  call void @_ZN3gmx16HardwareTopology7MachineC1Ev(ptr noundef nonnull align 8 dereferenceable(208) %5)
  %6 = getelementptr inbounds nuw %"class.gmx::HardwareTopology", ptr %3, i32 0, i32 3
  store i8 1, ptr %6, align 8, !tbaa !672
  %7 = getelementptr inbounds nuw %"class.gmx::HardwareTopology", ptr %3, i32 0, i32 5
  store float 1.000000e+00, ptr %7, align 4, !tbaa !55
  ret void
}