; Function Attrs: mustprogress uwtable
define void @_ZN3gmx16HardwareTopologyC2Ev(ptr noundef nonnull align 8 dereferenceable(228) initializes((0, 4)) %0) unnamed_addr #0 align 2 {
  store i32 0, ptr %0, align 8, !tbaa !4
  %2 = getelementptr inbounds nuw i8, ptr %0, i64 8
  tail call void @_ZN3gmx16HardwareTopology7MachineC1Ev(ptr noundef nonnull align 8 dereferenceable(208) %2)
  %3 = getelementptr inbounds nuw i8, ptr %0, i64 216
  store i8 1, ptr %3, align 8, !tbaa !345
  %4 = getelementptr inbounds nuw i8, ptr %0, i64 220
  store float 1.000000e+00, ptr %4, align 4, !tbaa !80
  ret void
}